; Function Attrs: nounwind uwtable
define internal i32 @xiph_parse_sdp_line(ptr noundef %0, i32 noundef %1, ptr noundef %2, ptr noundef %3) #0 {
  %5 = alloca ptr, align 8
  call void @llvm.lifetime.start.p0(i64 8, ptr nonnull %5) #8
  %6 = icmp slt i32 %1, 0
  br i1 %6, label %17, label %7

7:                                                ; preds = %4
  %8 = call i32 @av_strstart(ptr noundef %3, ptr noundef nonnull @.str.2, ptr noundef nonnull %5) #8
  %.not = icmp eq i32 %8, 0
  br i1 %.not, label %17, label %9

9:                                                ; preds = %7
  %10 = getelementptr inbounds nuw i8, ptr %0, i64 48
  %11 = load ptr, ptr %10, align 8, !tbaa !4
  %12 = zext nneg i32 %1 to i64
  %13 = getelementptr inbounds nuw ptr, ptr %11, i64 %12
  %14 = load ptr, ptr %13, align 8, !tbaa !24
  %15 = load ptr, ptr %5, align 8, !tbaa !26
  %16 = call i32 @ff_parse_fmtp(ptr noundef %0, ptr noundef %14, ptr noundef %2, ptr noundef %15, ptr noundef nonnull @xiph_parse_fmtp_pair) #8
  br label %17

17:                                               ; preds = %7, %4, %9
  %.0 = phi i32 [ %16, %9 ], [ 0, %4 ], [ 0, %7 ]
  call void @llvm.lifetime.end.p0(i64 8, ptr nonnull %5) #8
  ret i32 %.0
}